target datalayout = "e-m:e-p270:32:32-p271:32:32-p272:64:64-i64:64-i128:128-f80:128-n8:16:32:64-S128"
target triple = "x86_64-pc-linux-gnu"

%struct._object = type { i64, ptr }
%"struct.pybind11::error_scope" = type { ptr, ptr, ptr }
%"struct.pybind11::detail::type_info" = type <{ ptr, ptr, i64, i64, i64, ptr, ptr, ptr, %"class.std::vector.247", %"class.std::vector.252", ptr, ptr, ptr, ptr, i8, [7 x i8] }>
%"class.std::vector.247" = type { %"struct.std::_Vector_base.248" }
%"struct.std::_Vector_base.248" = type { %"struct.std::_Vector_base<_object *(*)(_object *, _typeobject *), std::allocator<_object *(*)(_object *, _typeobject *)>>::_Vector_impl" }
%"struct.std::_Vector_base<_object *(*)(_object *, _typeobject *), std::allocator<_object *(*)(_object *, _typeobject *)>>::_Vector_impl" = type { %"struct.std::_Vector_base<_object *(*)(_object *, _typeobject *), std::allocator<_object *(*)(_object *, _typeobject *)>>::_Vector_impl_data" }
%"struct.std::_Vector_base<_object *(*)(_object *, _typeobject *), std::allocator<_object *(*)(_object *, _typeobject *)>>::_Vector_impl_data" = type { ptr, ptr, ptr }
%"class.std::vector.252" = type { %"struct.std::_Vector_base.253" }
%"struct.std::_Vector_base.253" = type { %"struct.std::_Vector_base<std::pair<const std::type_info *, void *(*)(void *)>, std::allocator<std::pair<const std::type_info *, void *(*)(void *)>>>::_Vector_impl" }
%"struct.std::_Vector_base<std::pair<const std::type_info *, void *(*)(void *)>, std::allocator<std::pair<const std::type_info *, void *(*)(void *)>>>::_Vector_impl" = type { %"struct.std::_Vector_base<std::pair<const std::type_info *, void *(*)(void *)>, std::allocator<std::pair<const std::type_info *, void *(*)(void *)>>>::_Vector_impl_data" }
%"struct.std::_Vector_base<std::pair<const std::type_info *, void *(*)(void *)>, std::allocator<std::pair<const std::type_info *, void *(*)(void *)>>>::_Vector_impl_data" = type { ptr, ptr, ptr }
%"struct.pybind11::detail::value_and_holder" = type { ptr, i64, ptr, ptr }
%"struct.pybind11::detail::instance" = type { %struct._object, %union.anon.350, ptr, i8 }
%union.anon.350 = type { [3 x ptr] }
%"struct.pybind11::detail::nonsimple_values_and_holders" = type { ptr, ptr }

; Function Attrs: mustprogress nounwind uwtable
define linkonce_odr hidden void @_ZN8pybind1111error_scopeD2Ev(ptr noundef nonnull align 8 dereferenceable(24) %0) unnamed_addr #0 comdat align 2 personality ptr @__gxx_personality_v0 {
  %2 = alloca ptr, align 8
  store ptr %0, ptr %2, align 8
  %3 = load ptr, ptr %2, align 8
  %4 = getelementptr inbounds %"struct.pybind11::error_scope", ptr %3, i32 0, i32 0
  %5 = load ptr, ptr %4, align 8
  %6 = getelementptr inbounds %"struct.pybind11::error_scope", ptr %3, i32 0, i32 1
  %7 = load ptr, ptr %6, align 8
  %8 = getelementptr inbounds %"struct.pybind11::error_scope", ptr %3, i32 0, i32 2
  %9 = load ptr, ptr %8, align 8
  invoke void @PyErr_Restore(ptr noundef %5, ptr noundef %7, ptr noundef %9)
          to label %10 unwind label %11

10:                                               ; preds = %1
  ret void

11:                                               ; preds = %1
  %12 = landingpad { ptr, i32 }
          catch ptr null
  %13 = extractvalue { ptr, i32 } %12, 0
  call void @__clang_call_terminate(ptr %13) #21
  unreachable
}

; Function Attrs: mustprogress nounwind uwtable
define linkonce_odr hidden noundef nonnull align 8 dereferenceable(8) ptr @_ZNK8pybind116detail16value_and_holder9value_ptrIvEERPT_v(ptr noundef nonnull align 8 dereferenceable(32) %0) #0 comdat align 2 {
  %2 = alloca ptr, align 8
  store ptr %0, ptr %2, align 8
  %3 = load ptr, ptr %2, align 8
  %4 = getelementptr inbounds %"struct.pybind11::detail::value_and_holder", ptr %3, i32 0, i32 3
  %5 = load ptr, ptr %4, align 8
  %6 = getelementptr inbounds ptr, ptr %5, i64 0
  ret ptr %6
}

; Function Attrs: mustprogress nounwind uwtable
define linkonce_odr hidden void @_ZN8pybind116detail20call_operator_deleteEPvmm(ptr noundef %0, i64 noundef %1, i64 noundef %2) #0 comdat {
  %4 = alloca ptr, align 8
  %5 = alloca i64, align 8
  %6 = alloca i64, align 8
  store ptr %0, ptr %4, align 8
  store i64 %1, ptr %5, align 8
  store i64 %2, ptr %6, align 8
  %7 = load i64, ptr %6, align 8
  %8 = icmp ugt i64 %7, 16
  br i1 %8, label %9, label %12

9:                                                ; preds = %3
  %10 = load ptr, ptr %4, align 8
  %11 = load i64, ptr %6, align 8
  call void @_ZdlPvSt11align_val_t(ptr noundef %10, i64 noundef %11) #7
  br label %14

12:                                               ; preds = %3
  %13 = load ptr, ptr %4, align 8
  call void @_ZdlPv(ptr noundef %13) #7
  br label %14

14:                                               ; preds = %12, %9
  ret void
}

; Function Attrs: mustprogress nounwind uwtable
define internal noundef nonnull align 8 dereferenceable(8) ptr @_ZNK8pybind116detail16value_and_holder9value_ptrIN12_GLOBAL__N_134TypeForMoveOnlyHolderWithAddressOfEEERPT_v(ptr noundef nonnull align 8 dereferenceable(32) %0) #0 align 2 {
  %2 = alloca ptr, align 8
  store ptr %0, ptr %2, align 8
  %3 = load ptr, ptr %2, align 8
  %4 = getelementptr inbounds %"struct.pybind11::detail::value_and_holder", ptr %3, i32 0, i32 3
  %5 = load ptr, ptr %4, align 8
  %6 = getelementptr inbounds ptr, ptr %5, i64 0
  ret ptr %6
}

; Function Attrs: mustprogress nounwind uwtable
define linkonce_odr hidden void @_ZN8pybind116detail16value_and_holder22set_holder_constructedEb(ptr noundef nonnull align 8 dereferenceable(32) %0, i1 noundef zeroext %1) #0 comdat align 2 {
  %3 = alloca ptr, align 8
  %4 = alloca i8, align 1
  store ptr %0, ptr %3, align 8
  %5 = zext i1 %1 to i8
  store i8 %5, ptr %4, align 1
  %6 = load ptr, ptr %3, align 8
  %7 = getelementptr inbounds %"struct.pybind11::detail::value_and_holder", ptr %6, i32 0, i32 0
  %8 = load ptr, ptr %7, align 8
  %9 = getelementptr inbounds %"struct.pybind11::detail::instance", ptr %8, i32 0, i32 3
  %10 = load i8, ptr %9, align 8
  %11 = lshr i8 %10, 1
  %12 = and i8 %11, 1
  %13 = trunc i8 %12 to i1
  br i1 %13, label %14, label %25

14:                                               ; preds = %2
  %15 = load i8, ptr %4, align 1
  %16 = trunc i8 %15 to i1
  %17 = getelementptr inbounds %"struct.pybind11::detail::value_and_holder", ptr %6, i32 0, i32 0
  %18 = load ptr, ptr %17, align 8
  %19 = getelementptr inbounds %"struct.pybind11::detail::instance", ptr %18, i32 0, i32 3
  %20 = zext i1 %16 to i8
  %21 = load i8, ptr %19, align 8
  %22 = shl i8 %20, 2
  %23 = and i8 %21, -5
  %24 = or i8 %23, %22
  store i8 %24, ptr %19, align 8
  br label %55

25:                                               ; preds = %2
  %26 = load i8, ptr %4, align 1
  %27 = trunc i8 %26 to i1
  br i1 %27, label %28, label %41

28:                                               ; preds = %25
  %29 = getelementptr inbounds %"struct.pybind11::detail::value_and_holder", ptr %6, i32 0, i32 0
  %30 = load ptr, ptr %29, align 8
  %31 = getelementptr inbounds %"struct.pybind11::detail::instance", ptr %30, i32 0, i32 1
  %32 = getelementptr inbounds %"struct.pybind11::detail::nonsimple_values_and_holders", ptr %31, i32 0, i32 1
  %33 = load ptr, ptr %32, align 8
  %34 = getelementptr inbounds %"struct.pybind11::detail::value_and_holder", ptr %6, i32 0, i32 1
  %35 = load i64, ptr %34, align 8
  %36 = getelementptr inbounds i8, ptr %33, i64 %35
  %37 = load i8, ptr %36, align 1
  %38 = zext i8 %37 to i32
  %39 = or i32 %38, 1
  %40 = trunc i32 %39 to i8
  store i8 %40, ptr %36, align 1
  br label %54

41:                                               ; preds = %25
  %42 = getelementptr inbounds %"struct.pybind11::detail::value_and_holder", ptr %6, i32 0, i32 0
  %43 = load ptr, ptr %42, align 8
  %44 = getelementptr inbounds %"struct.pybind11::detail::instance", ptr %43, i32 0, i32 1
  %45 = getelementptr inbounds %"struct.pybind11::detail::nonsimple_values_and_holders", ptr %44, i32 0, i32 1
  %46 = load ptr, ptr %45, align 8
  %47 = getelementptr inbounds %"struct.pybind11::detail::value_and_holder", ptr %6, i32 0, i32 1
  %48 = load i64, ptr %47, align 8
  %49 = getelementptr inbounds i8, ptr %46, i64 %48
  %50 = load i8, ptr %49, align 1
  %51 = zext i8 %50 to i32
  %52 = and i32 %51, 254
  %53 = trunc i32 %52 to i8
  store i8 %53, ptr %49, align 1
  br label %54

54:                                               ; preds = %41, %28
  br label %55

55:                                               ; preds = %54, %14
  ret void
}

; Function Attrs: mustprogress nounwind uwtable
define internal noundef nonnull align 8 dereferenceable(8) ptr @_ZNK8pybind116detail16value_and_holder6holderIN12_GLOBAL__N_134unique_ptr_with_addressof_operatorINS3_34TypeForMoveOnlyHolderWithAddressOfEEEEERT_v(ptr noundef nonnull align 8 dereferenceable(32) %0) #0 align 2 {
  %2 = alloca ptr, align 8
  store ptr %0, ptr %2, align 8
  %3 = load ptr, ptr %2, align 8
  %4 = getelementptr inbounds %"struct.pybind11::detail::value_and_holder", ptr %3, i32 0, i32 3
  %5 = load ptr, ptr %4, align 8
  %6 = getelementptr inbounds ptr, ptr %5, i64 1
  ret ptr %6
}

; Function Attrs: mustprogress nounwind uwtable
define linkonce_odr hidden noundef zeroext i1 @_ZNK8pybind116detail16value_and_holder18holder_constructedEv(ptr noundef nonnull align 8 dereferenceable(32) %0) #0 comdat align 2 {
  %2 = alloca ptr, align 8
  store ptr %0, ptr %2, align 8
  %3 = load ptr, ptr %2, align 8
  %4 = getelementptr inbounds %"struct.pybind11::detail::value_and_holder", ptr %3, i32 0, i32 0
  %5 = load ptr, ptr %4, align 8
  %6 = getelementptr inbounds %"struct.pybind11::detail::instance", ptr %5, i32 0, i32 3
  %7 = load i8, ptr %6, align 8
  %8 = lshr i8 %7, 1
  %9 = and i8 %8, 1
  %10 = trunc i8 %9 to i1
  br i1 %10, label %11, label %19

11:                                               ; preds = %1
  %12 = getelementptr inbounds %"struct.pybind11::detail::value_and_holder", ptr %3, i32 0, i32 0
  %13 = load ptr, ptr %12, align 8
  %14 = getelementptr inbounds %"struct.pybind11::detail::instance", ptr %13, i32 0, i32 3
  %15 = load i8, ptr %14, align 8
  %16 = lshr i8 %15, 2
  %17 = and i8 %16, 1
  %18 = trunc i8 %17 to i1
  br label %32

19:                                               ; preds = %1
  %20 = getelementptr inbounds %"struct.pybind11::detail::value_and_holder", ptr %3, i32 0, i32 0
  %21 = load ptr, ptr %20, align 8
  %22 = getelementptr inbounds %"struct.pybind11::detail::instance", ptr %21, i32 0, i32 1
  %23 = getelementptr inbounds %"struct.pybind11::detail::nonsimple_values_and_holders", ptr %22, i32 0, i32 1
  %24 = load ptr, ptr %23, align 8
  %25 = getelementptr inbounds %"struct.pybind11::detail::value_and_holder", ptr %3, i32 0, i32 1
  %26 = load i64, ptr %25, align 8
  %27 = getelementptr inbounds i8, ptr %24, i64 %26
  %28 = load i8, ptr %27, align 1
  %29 = zext i8 %28 to i32
  %30 = and i32 %29, 1
  %31 = icmp ne i32 %30, 0
  br label %32

32:                                               ; preds = %19, %11
  %33 = phi i1 [ %18, %11 ], [ %31, %19 ]
  ret i1 %33
}

; Function Attrs: mustprogress uwtable
define linkonce_odr hidden void @_ZN8pybind1111error_scopeC2Ev(ptr noundef nonnull align 8 dereferenceable(24) %0) unnamed_addr #1 comdat align 2 {
  %2 = alloca ptr, align 8
  store ptr %0, ptr %2, align 8
  %3 = load ptr, ptr %2, align 8
  %4 = getelementptr inbounds %"struct.pybind11::error_scope", ptr %3, i32 0, i32 0
  %5 = getelementptr inbounds %"struct.pybind11::error_scope", ptr %3, i32 0, i32 1
  %6 = getelementptr inbounds %"struct.pybind11::error_scope", ptr %3, i32 0, i32 2
  call void @PyErr_Fetch(ptr noundef %4, ptr noundef %5, ptr noundef %6)
  ret void
}

; Function Attrs: mustprogress uwtable
define internal void @_ZN8pybind116class_IN12_GLOBAL__N_134TypeForMoveOnlyHolderWithAddressOfEJNS1_34unique_ptr_with_addressof_operatorIS2_EEEE7deallocERNS_6detail16value_and_holderE(ptr noundef nonnull align 8 dereferenceable(32) %0) #1 align 2 {
  %2 = alloca ptr, align 8
  %3 = alloca %"struct.pybind11::error_scope", align 8
  store ptr %0, ptr %2, align 8
  call void @_ZN8pybind1111error_scopeC2Ev(ptr noundef nonnull align 8 dereferenceable(24) %3)
  %4 = load ptr, ptr %2, align 8
  %5 = call noundef zeroext i1 @_ZNK8pybind116detail16value_and_holder18holder_constructedEv(ptr noundef nonnull align 8 dereferenceable(32) %4)
  br i1 %5, label %6, label %10

6:                                                ; preds = %1
  %7 = load ptr, ptr %2, align 8
  %8 = call noundef nonnull align 8 dereferenceable(8) ptr @_ZNK8pybind116detail16value_and_holder6holderIN12_GLOBAL__N_134unique_ptr_with_addressof_operatorINS3_34TypeForMoveOnlyHolderWithAddressOfEEEEERT_v(ptr noundef nonnull align 8 dereferenceable(32) %7)
  call void @_ZN12_GLOBAL__N_134unique_ptr_with_addressof_operatorINS_34TypeForMoveOnlyHolderWithAddressOfEED2Ev(ptr noundef nonnull align 8 dereferenceable(8) %8) #7
  %9 = load ptr, ptr %2, align 8
  call void @_ZN8pybind116detail16value_and_holder22set_holder_constructedEb(ptr noundef nonnull align 8 dereferenceable(32) %9, i1 noundef zeroext false)
  br label %24

10:                                               ; preds = %1
  %11 = load ptr, ptr %2, align 8
  %12 = call noundef nonnull align 8 dereferenceable(8) ptr @_ZNK8pybind116detail16value_and_holder9value_ptrIN12_GLOBAL__N_134TypeForMoveOnlyHolderWithAddressOfEEERPT_v(ptr noundef nonnull align 8 dereferenceable(32) %11)
  %13 = load ptr, ptr %12, align 8
  %14 = load ptr, ptr %2, align 8
  %15 = getelementptr inbounds %"struct.pybind11::detail::value_and_holder", ptr %14, i32 0, i32 2
  %16 = load ptr, ptr %15, align 8
  %17 = getelementptr inbounds %"struct.pybind11::detail::type_info", ptr %16, i32 0, i32 2
  %18 = load i64, ptr %17, align 8
  %19 = load ptr, ptr %2, align 8
  %20 = getelementptr inbounds %"struct.pybind11::detail::value_and_holder", ptr %19, i32 0, i32 2
  %21 = load ptr, ptr %20, align 8
  %22 = getelementptr inbounds %"struct.pybind11::detail::type_info", ptr %21, i32 0, i32 3
  %23 = load i64, ptr %22, align 8
  call void @_ZN8pybind116detail20call_operator_deleteEPvmm(ptr noundef %13, i64 noundef %18, i64 noundef %23)
  br label %24

24:                                               ; preds = %10, %6
  %25 = load ptr, ptr %2, align 8
  %26 = call noundef nonnull align 8 dereferenceable(8) ptr @_ZNK8pybind116detail16value_and_holder9value_ptrIvEERPT_v(ptr noundef nonnull align 8 dereferenceable(32) %25)
  store ptr null, ptr %26, align 8
  call void @_ZN8pybind1111error_scopeD2Ev(ptr noundef nonnull align 8 dereferenceable(24) %3) #7
  ret void
}